target datalayout = "e-m:e-p270:32:32-p271:32:32-p272:64:64-i64:64-i128:128-f80:128-n8:16:32:64-S128"
target triple = "x86_64-pc-linux-gnu"

%struct.MessageHeader = type { [4 x i8], %struct.Version, i8, i8, i32, i32, i32, ptr }
%struct.Version = type { i8, i8 }

@giop_max_message_size = internal global i32 10485760, align 4

; Function Attrs: nounwind null_pointer_is_valid sspstrong uwtable
define zeroext i1 @is_big_endian(ptr noundef %0) #5 {
  %2 = alloca ptr, align 8
  %3 = alloca i8, align 1
  store ptr %0, ptr %2, align 8
  call void @llvm.lifetime.start.p0(i64 1, ptr %3) #14
  store i8 0, ptr %3, align 1
  %4 = load ptr, ptr %2, align 8
  %5 = getelementptr inbounds nuw %struct.MessageHeader, ptr %4, i32 0, i32 1
  %6 = getelementptr inbounds nuw %struct.Version, ptr %5, i32 0, i32 1
  %7 = load i8, ptr %6, align 1
  %8 = zext i8 %7 to i32
  switch i32 %8, label %27 [
    i32 2, label %9
    i32 1, label %9
    i32 0, label %19
  ]

9:                                                ; preds = %1, %1
  %10 = load ptr, ptr %2, align 8
  %11 = getelementptr inbounds nuw %struct.MessageHeader, ptr %10, i32 0, i32 2
  %12 = load i8, ptr %11, align 2
  %13 = zext i8 %12 to i32
  %14 = and i32 %13, 1
  %15 = icmp ne i32 %14, 0
  br i1 %15, label %16, label %17

16:                                               ; preds = %9
  store i8 0, ptr %3, align 1
  br label %18

17:                                               ; preds = %9
  store i8 1, ptr %3, align 1
  br label %18

18:                                               ; preds = %17, %16
  br label %28

19:                                               ; preds = %1
  %20 = load ptr, ptr %2, align 8
  %21 = getelementptr inbounds nuw %struct.MessageHeader, ptr %20, i32 0, i32 2
  %22 = load i8, ptr %21, align 2
  %23 = icmp ne i8 %22, 0
  br i1 %23, label %24, label %25

24:                                               ; preds = %19
  store i8 0, ptr %3, align 1
  br label %26

25:                                               ; preds = %19
  store i8 1, ptr %3, align 1
  br label %26

26:                                               ; preds = %25, %24
  br label %28

27:                                               ; preds = %1
  br label %28

28:                                               ; preds = %27, %26, %18
  %29 = load i8, ptr %3, align 1, !range !8, !noundef !9
  %30 = trunc i8 %29 to i1
  call void @llvm.lifetime.end.p0(i64 1, ptr %3) #14
  ret i1 %30
}

; Function Attrs: null_pointer_is_valid sspstrong uwtable
define internal i32 @get_giop_pdu_len(ptr noundef %0, ptr noundef %1, i32 noundef %2, ptr noundef %3) #0 {
  %5 = alloca i32, align 4
  %6 = alloca ptr, align 8
  %7 = alloca ptr, align 8
  %8 = alloca i32, align 4
  %9 = alloca ptr, align 8
  %10 = alloca %struct.MessageHeader, align 8
  %11 = alloca i32, align 4
  %12 = alloca i32, align 4
  store ptr %0, ptr %6, align 8
  store ptr %1, ptr %7, align 8
  store i32 %2, ptr %8, align 4
  store ptr %3, ptr %9, align 8
  call void @llvm.lifetime.start.p0(i64 32, ptr %10) #14
  call void @llvm.lifetime.start.p0(i64 4, ptr %11) #14
  %13 = load ptr, ptr %7, align 8
  %14 = load i32, ptr %8, align 4
  %15 = call i32 @tvb_reported_length_remaining(ptr noundef %13, i32 noundef %14)
  %16 = icmp slt i32 %15, 12
  br i1 %16, label %17, label %18

17:                                               ; preds = %4
  store i32 0, ptr %5, align 4
  store i32 1, ptr %12, align 4
  br label %56

18:                                               ; preds = %4
  %19 = load ptr, ptr %7, align 8
  %20 = load i32, ptr %8, align 4
  %21 = add i32 0, %20
  %22 = call i32 @tvb_get_ntohl(ptr noundef %19, i32 noundef %21)
  %23 = icmp ne i32 %22, 1195986768
  br i1 %23, label %24, label %25

24:                                               ; preds = %18
  store i32 0, ptr %5, align 4
  store i32 1, ptr %12, align 4
  br label %56

25:                                               ; preds = %18
  %26 = load ptr, ptr %7, align 8
  %27 = load i32, ptr %8, align 4
  %28 = add i32 5, %27
  %29 = call zeroext i8 @tvb_get_uint8(ptr noundef %26, i32 noundef %28)
  %30 = getelementptr inbounds nuw %struct.MessageHeader, ptr %10, i32 0, i32 1
  %31 = getelementptr inbounds nuw %struct.Version, ptr %30, i32 0, i32 1
  store i8 %29, ptr %31, align 1
  %32 = load ptr, ptr %7, align 8
  %33 = load i32, ptr %8, align 4
  %34 = add i32 6, %33
  %35 = call zeroext i8 @tvb_get_uint8(ptr noundef %32, i32 noundef %34)
  %36 = getelementptr inbounds nuw %struct.MessageHeader, ptr %10, i32 0, i32 2
  store i8 %35, ptr %36, align 2
  %37 = call zeroext i1 @is_big_endian(ptr noundef %10)
  br i1 %37, label %38, label %43

38:                                               ; preds = %25
  %39 = load ptr, ptr %7, align 8
  %40 = load i32, ptr %8, align 4
  %41 = add i32 8, %40
  %42 = call i32 @tvb_get_ntohl(ptr noundef %39, i32 noundef %41)
  store i32 %42, ptr %11, align 4
  br label %48

43:                                               ; preds = %25
  %44 = load ptr, ptr %7, align 8
  %45 = load i32, ptr %8, align 4
  %46 = add i32 8, %45
  %47 = call i32 @tvb_get_letohl(ptr noundef %44, i32 noundef %46)
  store i32 %47, ptr %11, align 4
  br label %48

48:                                               ; preds = %43, %38
  %49 = load i32, ptr %11, align 4
  %50 = load i32, ptr @giop_max_message_size, align 4
  %51 = icmp ugt i32 %49, %50
  br i1 %51, label %52, label %53

52:                                               ; preds = %48
  store i32 12, ptr %5, align 4
  store i32 1, ptr %12, align 4
  br label %56

53:                                               ; preds = %48
  %54 = load i32, ptr %11, align 4
  %55 = add i32 %54, 12
  store i32 %55, ptr %5, align 4
  store i32 1, ptr %12, align 4
  br label %56

56:                                               ; preds = %53, %52, %24, %17
  call void @llvm.lifetime.end.p0(i64 4, ptr %11) #14
  call void @llvm.lifetime.end.p0(i64 32, ptr %10) #14
  %57 = load i32, ptr %5, align 4
  ret i32 %57
}