; Function Attrs: null_pointer_is_valid sspstrong uwtable
define internal i32 @get_giop_pdu_len(ptr readnone captures(none) %0, ptr noundef %1, i32 noundef %2, ptr readnone captures(none) %3) #0 {
  %5 = tail call i32 @tvb_reported_length_remaining(ptr noundef %1, i32 noundef %2)
  %6 = icmp slt i32 %5, 12
  br i1 %6, label %25, label %7

7:                                                ; preds = %4
  %8 = tail call i32 @tvb_get_ntohl(ptr noundef %1, i32 noundef %2)
  %.not = icmp eq i32 %8, 1195986768
  br i1 %.not, label %9, label %25

9:                                                ; preds = %7
  %10 = add i32 %2, 5
  %11 = tail call zeroext i8 @tvb_get_uint8(ptr noundef %1, i32 noundef %10)
  %12 = add i32 %2, 6
  %13 = tail call zeroext i8 @tvb_get_uint8(ptr noundef %1, i32 noundef %12)
  switch i8 %11, label %is_big_endian.exit.thread [
    i8 2, label %14
    i8 1, label %14
    i8 0, label %is_big_endian.exit
  ]

14:                                               ; preds = %9, %9
  %15 = and i8 %13, 1
  %.not3.i = icmp eq i8 %15, 0
  br i1 %.not3.i, label %16, label %is_big_endian.exit.thread

is_big_endian.exit:                               ; preds = %9
  %.not.i = icmp eq i8 %13, 0
  br i1 %.not.i, label %16, label %is_big_endian.exit.thread

16:                                               ; preds = %14, %is_big_endian.exit
  %17 = add i32 %2, 8
  %18 = tail call i32 @tvb_get_ntohl(ptr noundef %1, i32 noundef %17)
  br label %21

is_big_endian.exit.thread:                        ; preds = %9, %14, %is_big_endian.exit
  %19 = add i32 %2, 8
  %20 = tail call i32 @tvb_get_letohl(ptr noundef %1, i32 noundef %19)
  br label %21

21:                                               ; preds = %is_big_endian.exit.thread, %16
  %.0 = phi i32 [ %18, %16 ], [ %20, %is_big_endian.exit.thread ]
  %22 = load i32, ptr @giop_max_message_size, align 4
  %23 = icmp ugt i32 %.0, %22
  %24 = add i32 %.0, 12
  %spec.select = select i1 %23, i32 12, i32 %24
  br label %25

25:                                               ; preds = %21, %7, %4
  %.014 = phi i32 [ 0, %4 ], [ 0, %7 ], [ %spec.select, %21 ]
  ret i32 %.014
}